; Function Attrs: mustprogress uwtable
define void @_ZN4YAML7Emitter18FlowMapPrepareNodeENS_15EmitterNodeType5valueE(ptr noundef nonnull align 8 dereferenceable(72) %0, i32 noundef %1) local_unnamed_addr #0 align 2 {
  %3 = load ptr, ptr %0, align 8, !tbaa !3
  %4 = tail call noundef i64 @_ZNK4YAML12EmitterState18CurGroupChildCountEv(ptr noundef nonnull align 8 dereferenceable(224) %3)
  %5 = and i64 %4, 1
  %6 = icmp eq i64 %5, 0
  %7 = load ptr, ptr %0, align 8, !tbaa !3
  br i1 %6, label %8, label %18

8:                                                ; preds = %2
  %9 = getelementptr inbounds nuw i8, ptr %7, i64 104
  %10 = load i32, ptr %9, align 4, !tbaa !65
  %11 = icmp eq i32 %10, 34
  br i1 %11, label %12, label %13

12:                                               ; preds = %8
  tail call void @_ZN4YAML12EmitterState10SetLongKeyEv(ptr noundef nonnull align 8 dereferenceable(224) %7)
  %.pre = load ptr, ptr %0, align 8, !tbaa !3
  br label %13

13:                                               ; preds = %12, %8
  %14 = phi ptr [ %.pre, %12 ], [ %7, %8 ]
  %15 = tail call noundef zeroext i1 @_ZNK4YAML12EmitterState15CurGroupLongKeyEv(ptr noundef nonnull align 8 dereferenceable(224) %14)
  br i1 %15, label %16, label %17

16:                                               ; preds = %13
  tail call void @_ZN4YAML7Emitter21FlowMapPrepareLongKeyENS_15EmitterNodeType5valueE(ptr noundef nonnull align 8 dereferenceable(72) %0, i32 noundef %1)
  br label %22

17:                                               ; preds = %13
  tail call void @_ZN4YAML7Emitter23FlowMapPrepareSimpleKeyENS_15EmitterNodeType5valueE(ptr noundef nonnull align 8 dereferenceable(72) %0, i32 noundef %1)
  br label %22

18:                                               ; preds = %2
  %19 = tail call noundef zeroext i1 @_ZNK4YAML12EmitterState15CurGroupLongKeyEv(ptr noundef nonnull align 8 dereferenceable(224) %7)
  br i1 %19, label %20, label %21

20:                                               ; preds = %18
  tail call void @_ZN4YAML7Emitter26FlowMapPrepareLongKeyValueENS_15EmitterNodeType5valueE(ptr noundef nonnull align 8 dereferenceable(72) %0, i32 noundef %1)
  br label %22

21:                                               ; preds = %18
  tail call void @_ZN4YAML7Emitter28FlowMapPrepareSimpleKeyValueENS_15EmitterNodeType5valueE(ptr noundef nonnull align 8 dereferenceable(72) %0, i32 noundef %1)
  br label %22

22:                                               ; preds = %20, %21, %16, %17
  ret void
}